target datalayout = "e-m:e-p270:32:32-p271:32:32-p272:64:64-i64:64-i128:128-f80:128-n8:16:32:64-S128"
target triple = "x86_64-pc-linux-gnu"

%struct.pointf_s = type { double, double }
%struct.GVJ_s = type { ptr, ptr, ptr, ptr, ptr, ptr, i32, ptr, ptr, ptr, ptr, i64, i64, ptr, i32, %struct.gvplugin_active_render_s, %struct.gvplugin_active_device_s, %struct.gvplugin_active_loadimage_t, ptr, %struct.pointf_s, i8, ptr, i32, ptr, i8, ptr, i32, i32, i32, %struct.point, %struct.point, %struct.point, %struct.point, %struct.point, i32, %struct.boxf, %struct.pointf_s, %struct.boxf, %struct.boxf, %struct.pointf_s, %struct.pointf_s, double, i32, %struct.pointf_s, %struct.boxf, %struct.pointf_s, %struct.pointf_s, i32, i32, %struct.box, %struct.box, %struct.pointf_s, %struct.pointf_s, %struct.pointf_s, i8, i8, i8, i8, i8, i8, %struct.pointf_s, %struct.pointf_s, ptr, ptr, ptr, ptr, ptr, ptr, i64, ptr }
%struct.gvplugin_active_render_s = type { ptr, i32, ptr, ptr }
%struct.gvplugin_active_device_s = type { ptr, i32, ptr, ptr }
%struct.gvplugin_active_loadimage_t = type { ptr, i32, ptr }
%struct.point = type { i32, i32 }
%struct.boxf = type { %struct.pointf_s, %struct.pointf_s }
%struct.box = type { %struct.point, %struct.point }
%struct.GVC_s = type { %struct.GVCOMMON_s, ptr, i8, ptr, i32, ptr, ptr, [5 x ptr], [5 x ptr], ptr, ptr, %struct.dtdisc_s_, ptr, %struct.gvplugin_active_textlayout_s, ptr, ptr, ptr, %struct.gvplugin_active_layout_s, ptr, ptr, ptr, %struct.pointf_s, %struct.pointf_s, %struct.pointf_s, %struct.point, %struct.boxf, i32, i8, i8, i8, ptr, ptr, ptr, ptr, i32, ptr, ptr, double, ptr, %struct.color_s, i32 }
%struct.GVCOMMON_s = type { ptr, ptr, i32, i8, i8, ptr, ptr, ptr, i32, ptr, i32 }
%struct.dtdisc_s_ = type { i32, i32, i32, ptr, ptr, ptr }
%struct.gvplugin_active_textlayout_s = type { ptr, i32, ptr }
%struct.gvplugin_active_layout_s = type { ptr, i32, ptr, ptr }
%struct.color_s = type { %union.anon, i32 }
%union.anon = type { [4 x double] }

@.str.5 = private unnamed_addr constant [56 x i8] c"<?xml version=\221.0\22 encoding=\22UTF-8\22 standalone=\22no\22?>\0A\00", align 1
@.str.6 = private unnamed_addr constant [11 x i8] c"stylesheet\00", align 1
@.str.7 = private unnamed_addr constant [24 x i8] c"<?xml-stylesheet href=\22\00", align 1
@.str.8 = private unnamed_addr constant [21 x i8] c"\22 type=\22text/css\22?>\0A\00", align 1
@.str.9 = private unnamed_addr constant [101 x i8] c"<!DOCTYPE svg PUBLIC \22-//W3C//DTD SVG 1.1//EN\22\0A \22http://www.w3.org/Graphics/SVG/1.1/DTD/svg11.dtd\22>\0A\00", align 1
@.str.10 = private unnamed_addr constant [19 x i8] c"<!-- Generated by \00", align 1
@.str.11 = private unnamed_addr constant [10 x i8] c" version \00", align 1
@.str.12 = private unnamed_addr constant [3 x i8] c" (\00", align 1
@.str.13 = private unnamed_addr constant [8 x i8] c")\0A -->\0A\00", align 1

; Function Attrs: nounwind uwtable
define internal zeroext i1 @emit_standalone_headers(ptr noundef %0) #0 {
  %2 = alloca ptr, align 8
  store ptr %0, ptr %2, align 8, !tbaa !3
  %3 = load ptr, ptr %2, align 8, !tbaa !3
  %4 = getelementptr inbounds nuw %struct.GVJ_s, ptr %3, i32 0, i32 15
  %5 = getelementptr inbounds nuw %struct.gvplugin_active_render_s, ptr %4, i32 0, i32 1
  %6 = load i32, ptr %5, align 8, !tbaa !119
  %7 = icmp ne i32 %6, 2
  ret i1 %7
}

; Function Attrs: nounwind uwtable
define internal void @svg_begin_job(ptr noundef %0) #0 {
  %2 = alloca ptr, align 8
  %3 = alloca ptr, align 8
  store ptr %0, ptr %2, align 8, !tbaa !3
  call void @llvm.lifetime.start.p0(i64 8, ptr %3) #9
  %4 = load ptr, ptr %2, align 8, !tbaa !3
  %5 = call zeroext i1 @emit_standalone_headers(ptr noundef %4)
  br i1 %5, label %6, label %33

6:                                                ; preds = %1
  %7 = load ptr, ptr %2, align 8, !tbaa !3
  %8 = call i32 @gvputs(ptr noundef %7, ptr noundef @.str.5)
  %9 = load ptr, ptr %2, align 8, !tbaa !3
  %10 = getelementptr inbounds nuw %struct.GVJ_s, ptr %9, i32 0, i32 0
  %11 = load ptr, ptr %10, align 8, !tbaa !8
  %12 = getelementptr inbounds nuw %struct.GVC_s, ptr %11, i32 0, i32 16
  %13 = load ptr, ptr %12, align 8, !tbaa !31
  %14 = call ptr @agget(ptr noundef %13, ptr noundef @.str.6)
  store ptr %14, ptr %3, align 8, !tbaa !46
  %15 = icmp ne ptr %14, null
  br i1 %15, label %16, label %30

16:                                               ; preds = %6
  %17 = load ptr, ptr %3, align 8, !tbaa !46
  %18 = getelementptr inbounds i8, ptr %17, i64 0
  %19 = load i8, ptr %18, align 1, !tbaa !47
  %20 = sext i8 %19 to i32
  %21 = icmp ne i32 %20, 0
  br i1 %21, label %22, label %30

22:                                               ; preds = %16
  %23 = load ptr, ptr %2, align 8, !tbaa !3
  %24 = call i32 @gvputs(ptr noundef %23, ptr noundef @.str.7)
  %25 = load ptr, ptr %2, align 8, !tbaa !3
  %26 = load ptr, ptr %3, align 8, !tbaa !46
  %27 = call i32 @gvputs(ptr noundef %25, ptr noundef %26)
  %28 = load ptr, ptr %2, align 8, !tbaa !3
  %29 = call i32 @gvputs(ptr noundef %28, ptr noundef @.str.8)
  br label %30

30:                                               ; preds = %22, %16, %6
  %31 = load ptr, ptr %2, align 8, !tbaa !3
  %32 = call i32 @gvputs(ptr noundef %31, ptr noundef @.str.9)
  br label %33

33:                                               ; preds = %30, %1
  %34 = load ptr, ptr %2, align 8, !tbaa !3
  %35 = call i32 @gvputs(ptr noundef %34, ptr noundef @.str.10)
  %36 = load ptr, ptr %2, align 8, !tbaa !3
  %37 = load ptr, ptr %2, align 8, !tbaa !3
  %38 = getelementptr inbounds nuw %struct.GVJ_s, ptr %37, i32 0, i32 3
  %39 = load ptr, ptr %38, align 8, !tbaa !48
  %40 = getelementptr inbounds nuw %struct.GVCOMMON_s, ptr %39, i32 0, i32 0
  %41 = load ptr, ptr %40, align 8, !tbaa !49
  %42 = getelementptr inbounds ptr, ptr %41, i64 0
  %43 = load ptr, ptr %42, align 8, !tbaa !46
  %44 = call i32 @gvputs_xml(ptr noundef %36, ptr noundef %43)
  %45 = load ptr, ptr %2, align 8, !tbaa !3
  %46 = call i32 @gvputs(ptr noundef %45, ptr noundef @.str.11)
  %47 = load ptr, ptr %2, align 8, !tbaa !3
  %48 = load ptr, ptr %2, align 8, !tbaa !3
  %49 = getelementptr inbounds nuw %struct.GVJ_s, ptr %48, i32 0, i32 3
  %50 = load ptr, ptr %49, align 8, !tbaa !48
  %51 = getelementptr inbounds nuw %struct.GVCOMMON_s, ptr %50, i32 0, i32 0
  %52 = load ptr, ptr %51, align 8, !tbaa !49
  %53 = getelementptr inbounds ptr, ptr %52, i64 1
  %54 = load ptr, ptr %53, align 8, !tbaa !46
  %55 = call i32 @gvputs_xml(ptr noundef %47, ptr noundef %54)
  %56 = load ptr, ptr %2, align 8, !tbaa !3
  %57 = call i32 @gvputs(ptr noundef %56, ptr noundef @.str.12)
  %58 = load ptr, ptr %2, align 8, !tbaa !3
  %59 = load ptr, ptr %2, align 8, !tbaa !3
  %60 = getelementptr inbounds nuw %struct.GVJ_s, ptr %59, i32 0, i32 3
  %61 = load ptr, ptr %60, align 8, !tbaa !48
  %62 = getelementptr inbounds nuw %struct.GVCOMMON_s, ptr %61, i32 0, i32 0
  %63 = load ptr, ptr %62, align 8, !tbaa !49
  %64 = getelementptr inbounds ptr, ptr %63, i64 2
  %65 = load ptr, ptr %64, align 8, !tbaa !46
  %66 = call i32 @gvputs_xml(ptr noundef %58, ptr noundef %65)
  %67 = load ptr, ptr %2, align 8, !tbaa !3
  %68 = call i32 @gvputs(ptr noundef %67, ptr noundef @.str.13)
  call void @llvm.lifetime.end.p0(i64 8, ptr %3) #9
  ret void
}