; Function Attrs: nounwind uwtable
define internal void @svg_begin_job(ptr noundef %0) #0 {
  %2 = getelementptr i8, ptr %0, i64 128
  %.val = load i32, ptr %2, align 8, !tbaa !3
  %.not20 = icmp eq i32 %.val, 2
  br i1 %.not20, label %17, label %3

3:                                                ; preds = %1
  %4 = tail call i32 @gvputs(ptr noundef nonnull %0, ptr noundef nonnull @.str.5) #11
  %5 = load ptr, ptr %0, align 8, !tbaa !30
  %6 = getelementptr inbounds nuw i8, ptr %5, i64 304
  %7 = load ptr, ptr %6, align 8, !tbaa !31
  %8 = tail call ptr @agget(ptr noundef %7, ptr noundef nonnull @.str.6) #11
  %.not = icmp eq ptr %8, null
  br i1 %.not, label %15, label %9

9:                                                ; preds = %3
  %10 = load i8, ptr %8, align 1, !tbaa !46
  %.not19 = icmp eq i8 %10, 0
  br i1 %.not19, label %15, label %11

11:                                               ; preds = %9
  %12 = tail call i32 @gvputs(ptr noundef nonnull %0, ptr noundef nonnull @.str.7) #11
  %13 = tail call i32 @gvputs(ptr noundef nonnull %0, ptr noundef nonnull %8) #11
  %14 = tail call i32 @gvputs(ptr noundef nonnull %0, ptr noundef nonnull @.str.8) #11
  br label %15

15:                                               ; preds = %11, %9, %3
  %16 = tail call i32 @gvputs(ptr noundef nonnull %0, ptr noundef nonnull @.str.9) #11
  br label %17

17:                                               ; preds = %15, %1
  %18 = tail call i32 @gvputs(ptr noundef nonnull %0, ptr noundef nonnull @.str.10) #11
  %19 = getelementptr inbounds nuw i8, ptr %0, i64 24
  %20 = load ptr, ptr %19, align 8, !tbaa !47
  %21 = load ptr, ptr %20, align 8, !tbaa !48
  %22 = load ptr, ptr %21, align 8, !tbaa !49
  %23 = tail call i32 @gvputs_xml(ptr noundef nonnull %0, ptr noundef %22) #11
  %24 = tail call i32 @gvputs(ptr noundef nonnull %0, ptr noundef nonnull @.str.11) #11
  %25 = load ptr, ptr %19, align 8, !tbaa !47
  %26 = load ptr, ptr %25, align 8, !tbaa !48
  %27 = getelementptr inbounds nuw i8, ptr %26, i64 8
  %28 = load ptr, ptr %27, align 8, !tbaa !49
  %29 = tail call i32 @gvputs_xml(ptr noundef nonnull %0, ptr noundef %28) #11
  %30 = tail call i32 @gvputs(ptr noundef nonnull %0, ptr noundef nonnull @.str.12) #11
  %31 = load ptr, ptr %19, align 8, !tbaa !47
  %32 = load ptr, ptr %31, align 8, !tbaa !48
  %33 = getelementptr inbounds nuw i8, ptr %32, i64 16
  %34 = load ptr, ptr %33, align 8, !tbaa !49
  %35 = tail call i32 @gvputs_xml(ptr noundef nonnull %0, ptr noundef %34) #11
  %36 = tail call i32 @gvputs(ptr noundef nonnull %0, ptr noundef nonnull @.str.13) #11
  ret void
}